; Function Attrs: mustprogress uwtable
define void @_ZN5arrow20FixedSizeListBuilder16ValidateOverflowEl(ptr noalias sret(%"class.arrow::Status") align 8 %agg.result, ptr noundef nonnull align 8 dereferenceable(184) %this, i64 noundef %new_elements) local_unnamed_addr #0 align 2 personality ptr @__gxx_personality_v0 {
entry:
  %ref.tmp.i.i1 = alloca %"class.std::__cxx11::basic_string", align 8
  %ref.tmp.i.i = alloca %"class.std::__cxx11::basic_string", align 8
  %new_elements.addr = alloca i64, align 8
  %ref.tmp = alloca i64, align 8
  store i64 %new_elements, ptr %new_elements.addr, align 8
  %value_builder_ = getelementptr inbounds i8, ptr %this, i64 168
  %0 = load ptr, ptr %value_builder_, align 8
  %vtable = load ptr, ptr %0, align 8
  %vfn = getelementptr inbounds i8, ptr %vtable, i64 16
  %1 = load ptr, ptr %vfn, align 8
  %call2 = tail call noundef i64 %1(ptr noundef nonnull align 8 dereferenceable(144) %0)
  %list_size_ = getelementptr inbounds i8, ptr %this, i64 160
  %2 = load i32, ptr %list_size_, align 8
  %conv = sext i32 %2 to i64
  %cmp.not = icmp eq i64 %conv, %new_elements
  br i1 %cmp.not, label %if.end, label %if.then

if.then:                                          ; preds = %entry
  call void @llvm.lifetime.start.p0(i64 32, ptr nonnull %ref.tmp.i.i), !noalias !992
  call void @_ZN5arrow4util13StringBuilderIJRA38_KcRKiRA24_S2_RlEEENSt7__cxx1112basic_stringIcSt11char_traitsIcESaIcEEEDpOT_(ptr nonnull sret(%"class.std::__cxx11::basic_string") align 8 %ref.tmp.i.i, ptr noundef nonnull align 1 dereferenceable(38) @.str.9, ptr noundef nonnull align 4 dereferenceable(4) %list_size_, ptr noundef nonnull align 1 dereferenceable(24) @.str.10, ptr noundef nonnull align 8 dereferenceable(8) %new_elements.addr), !noalias !995
  invoke void @_ZN5arrow6StatusC1ENS_10StatusCodeERKNSt7__cxx1112basic_stringIcSt11char_traitsIcESaIcEEE(ptr noundef nonnull align 8 dereferenceable(8) %agg.result, i8 noundef signext 4, ptr noundef nonnull align 8 dereferenceable(32) %ref.tmp.i.i)
          to label %_ZN5arrow6Status7InvalidIJRA38_KcRKiRA24_S2_RlEEES0_DpOT_.exit unwind label %lpad.i.i

common.resume:                                    ; preds = %lpad.i.i2, %lpad.i.i
  %ref.tmp.i.i1.sink = phi ptr [ %ref.tmp.i.i1, %lpad.i.i2 ], [ %ref.tmp.i.i, %lpad.i.i ]
  %common.resume.op = phi { ptr, i32 } [ %4, %lpad.i.i2 ], [ %3, %lpad.i.i ]
  call void @_ZNSt7__cxx1112basic_stringIcSt11char_traitsIcESaIcEED1Ev(ptr noundef nonnull align 8 dereferenceable(32) %ref.tmp.i.i1.sink) #16
  resume { ptr, i32 } %common.resume.op

lpad.i.i:                                         ; preds = %if.then
  %3 = landingpad { ptr, i32 }
          cleanup
  br label %common.resume

_ZN5arrow6Status7InvalidIJRA38_KcRKiRA24_S2_RlEEES0_DpOT_.exit: ; preds = %if.then
  call void @_ZNSt7__cxx1112basic_stringIcSt11char_traitsIcESaIcEED1Ev(ptr noundef nonnull align 8 dereferenceable(32) %ref.tmp.i.i) #16
  call void @llvm.lifetime.end.p0(i64 32, ptr nonnull %ref.tmp.i.i), !noalias !992
  br label %return

if.end:                                           ; preds = %entry
  %add = add nsw i64 %call2, %new_elements
  %cmp5 = icmp eq i64 %add, 9223372036854775807
  br i1 %cmp5, label %if.then6, label %if.end8

if.then6:                                         ; preds = %if.end
  store i64 9223372036854775806, ptr %ref.tmp, align 8
  call void @llvm.lifetime.start.p0(i64 32, ptr nonnull %ref.tmp.i.i1), !noalias !998
  call void @_ZN5arrow4util13StringBuilderIJRA32_KclRA17_S2_RlEEENSt7__cxx1112basic_stringIcSt11char_traitsIcESaIcEEEDpOT_(ptr nonnull sret(%"class.std::__cxx11::basic_string") align 8 %ref.tmp.i.i1, ptr noundef nonnull align 1 dereferenceable(32) @.str.11, ptr noundef nonnull align 8 dereferenceable(8) %ref.tmp, ptr noundef nonnull align 1 dereferenceable(17) @.str.3, ptr noundef nonnull align 8 dereferenceable(8) %new_elements.addr), !noalias !1001
  invoke void @_ZN5arrow6StatusC1ENS_10StatusCodeERKNSt7__cxx1112basic_stringIcSt11char_traitsIcESaIcEEE(ptr noundef nonnull align 8 dereferenceable(8) %agg.result, i8 noundef signext 6, ptr noundef nonnull align 8 dereferenceable(32) %ref.tmp.i.i1)
          to label %_ZN5arrow6Status13CapacityErrorIJRA32_KclRA17_S2_RlEEES0_DpOT_.exit unwind label %lpad.i.i2

lpad.i.i2:                                        ; preds = %if.then6
  %4 = landingpad { ptr, i32 }
          cleanup
  br label %common.resume

_ZN5arrow6Status13CapacityErrorIJRA32_KclRA17_S2_RlEEES0_DpOT_.exit: ; preds = %if.then6
  call void @_ZNSt7__cxx1112basic_stringIcSt11char_traitsIcESaIcEED1Ev(ptr noundef nonnull align 8 dereferenceable(32) %ref.tmp.i.i1) #16
  call void @llvm.lifetime.end.p0(i64 32, ptr nonnull %ref.tmp.i.i1), !noalias !998
  br label %return

if.end8:                                          ; preds = %if.end
  store ptr null, ptr %agg.result, align 8, !alias.scope !1004
  br label %return

return:                                           ; preds = %if.end8, %_ZN5arrow6Status13CapacityErrorIJRA32_KclRA17_S2_RlEEES0_DpOT_.exit, %_ZN5arrow6Status7InvalidIJRA38_KcRKiRA24_S2_RlEEES0_DpOT_.exit
  ret void
}